UNKNOWN:_ZN13IlmThread_2_310ThreadPool13setNumThreadsEi
UNKNOWN:_ZN13IlmThread_2_310ThreadPool16globalThreadPoolEv
UNKNOWN:_ZN16OpenImageIO_v1_810Filesystem9extensionERKNSt7__cxx1112basic_stringIcSt11char_traitsIcESaIcEEEb
UNKNOWN:_ZN16OpenImageIO_v1_810ImageCache6createEb
UNKNOWN:_ZN16OpenImageIO_v1_810ImageCache7destroyEPS0_
UNKNOWN:_ZN16OpenImageIO_v1_810ImageInput4openERKNSt7__cxx1112basic_stringIcSt11char_traitsIcESaIcEEEPKNS_9ImageSpecE
UNKNOWN:_ZN16OpenImageIO_v1_810ParamValue11clear_valueEv
UNKNOWN:_ZN16OpenImageIO_v1_810ParamValue12init_noclearENS_7ustringENS_8TypeDescEiNS0_6InterpEPKvb
UNKNOWN:_ZN16OpenImageIO_v1_811ImageOutput6createERKNSt7__cxx1112basic_stringIcSt11char_traitsIcESaIcEEES8_
UNKNOWN:_ZN16OpenImageIO_v1_812ImageBufAlgo11render_textERNS_8ImageBufEiiNS_11string_viewEiS3_PKf
UNKNOWN:_ZN16OpenImageIO_v1_812ImageBufAlgo4flipERNS_8ImageBufERKS1_NS_3ROIEi
UNKNOWN:_ZN16OpenImageIO_v1_812ImageBufAlgo6resizeERNS_8ImageBufERKS1_PNS_8Filter2DENS_3ROIEi
UNKNOWN:_ZN16OpenImageIO_v1_812ImageBufAlgo8resampleERNS_8ImageBufERKS1_bNS_3ROIEi
UNKNOWN:_ZN16OpenImageIO_v1_812getattributeENS_11string_viewENS_8TypeDescEPv
UNKNOWN:_ZN16OpenImageIO_v1_819openimageio_versionEv
UNKNOWN:_ZN16OpenImageIO_v1_87ustring11make_uniqueENS_11string_viewE
UNKNOWN:_ZN16OpenImageIO_v1_87ustring16empty_std_stringB5cxx11E
UNKNOWN:_ZN16OpenImageIO_v1_88Filter2D11num_filtersEv
UNKNOWN:_ZN16OpenImageIO_v1_88Filter2D14get_filterdescEiPNS_10FilterDescE
UNKNOWN:_ZN16OpenImageIO_v1_88Filter2D6createENS_11string_viewEff
UNKNOWN:_ZN16OpenImageIO_v1_88ImageBufC1ENS_11string_viewERKNS_9ImageSpecEPv
UNKNOWN:_ZN16OpenImageIO_v1_88ImageBufD1Ev
UNKNOWN:_ZN16OpenImageIO_v1_89ImageSpec12metadata_valB5cxx11ERKNS_10ParamValueEb
UNKNOWN:_ZN16OpenImageIO_v1_89ImageSpec21default_channel_namesEv
UNKNOWN:_ZN16OpenImageIO_v1_89ImageSpec9attributeENS_11string_viewENS_8TypeDescEPKv
UNKNOWN:_ZN16OpenImageIO_v1_89ImageSpecC1ENS_8TypeDescE
UNKNOWN:_ZN16OpenImageIO_v1_89ImageSpecC1EiiiNS_8TypeDescE
UNKNOWN:_ZN16OpenImageIO_v1_89attributeENS_11string_viewENS_8TypeDescEPKv
UNKNOWN:_ZN4half5_eLutE
UNKNOWN:_ZN4half7convertEi
UNKNOWN:_ZN6SeExpr3FBMILi3ELi1ELb0EdEEvPKT2_PS1_iS1_S1_
UNKNOWN:_ZN6SeExpr3FBMILi3ELi1ELb1EdEEvPKT2_PS1_iS1_S1_
UNKNOWN:_ZN6SeExpr5NoiseILi3ELi1EdEEvPKT1_PS1_
UNKNOWN:_ZN6SeExpr9CellNoiseILi3ELi1EdEEvPKT1_PS1_
UNKNOWN:_ZN7Imf_2_310OutputFile11writePixelsEi
UNKNOWN:_ZN7Imf_2_310OutputFile14setFrameBufferERKNS_11FrameBufferE
UNKNOWN:_ZN7Imf_2_310OutputFileC1EPKcRKNS_6HeaderEi
UNKNOWN:_ZN7Imf_2_310OutputFileD1Ev
UNKNOWN:_ZN7Imf_2_311ChannelList6insertEPKcRKNS_7ChannelE
UNKNOWN:_ZN7Imf_2_311FrameBuffer6insertEPKcRKNS_5SliceE
UNKNOWN:_ZN7Imf_2_317globalThreadCountEv
UNKNOWN:_ZN7Imf_2_35SliceC1ENS_9PixelTypeEPcmmiidbb
UNKNOWN:_ZN7Imf_2_36Header8channelsEv
UNKNOWN:_ZN7Imf_2_36HeaderC1ERKN9Imath_2_33BoxINS1_4Vec2IiEEEES7_fRKNS3_IfEEfNS_9LineOrderENS_11CompressionE
UNKNOWN:_ZN7Imf_2_36HeaderD1Ev
UNKNOWN:_ZN7Imf_2_37ChannelC1ENS_9PixelTypeEiib
UNKNOWN:_ZN7Imf_2_39InputFile10readPixelsEi
UNKNOWN:_ZN7Imf_2_39InputFile14setFrameBufferERKNS_11FrameBufferE
UNKNOWN:_ZN7Imf_2_39InputFileC1EPKci
UNKNOWN:_ZNK16OpenImageIO_v1_811string_view5c_strEv
UNKNOWN:_ZNK16OpenImageIO_v1_88ImageBuf8geterrorB5cxx11Ev
UNKNOWN:_ZNK16OpenImageIO_v1_88TypeDesc5c_strEv
UNKNOWN:_ZNK16OpenImageIO_v1_88TypeDesc8basesizeEv
UNKNOWN:_ZNK16OpenImageIO_v1_89ImageSpec14find_attributeENS_11string_viewENS_8TypeDescEb
UNKNOWN:_ZNK16OpenImageIO_v1_89ImageSpec17get_int_attributeENS_11string_viewEi
UNKNOWN:_ZNK16OpenImageIO_v1_89ImageSpec19get_float_attributeENS_11string_viewEf
UNKNOWN:_ZNK7Imf_2_311ChannelList3endEv
UNKNOWN:_ZNK7Imf_2_311ChannelList5beginEv
UNKNOWN:_ZNK7Imf_2_36Header10dataWindowEv
UNKNOWN:_ZNK7Imf_2_36Header13displayWindowEv
UNKNOWN:_ZNK7Imf_2_36Header16pixelAspectRatioEv
UNKNOWN:_ZNK7Imf_2_36Header8channelsEv
UNKNOWN:_ZNK7Imf_2_39InputFile6headerEv
UNKNOWN:_ZTI11SeExprFuncX
UNKNOWN:_ZTI12SeExpression
UNKNOWN:_ZTIN11OpenColorIO2v19ExceptionE
UNKNOWN:dlclose
UNKNOWN:dlopen
UNKNOWN:dlsym
libGL.so.1:glBegin
libGL.so.1:glBitmap
libGL.so.1:glBlendFunc
libGL.so.1:glColor3d
libGL.so.1:glColor3f
libGL.so.1:glDisable
libGL.so.1:glEnable
libGL.so.1:glEnd
libGL.so.1:glGetDoublev
libGL.so.1:glGetIntegerv
libGL.so.1:glHint
libGL.so.1:glLineStipple
libGL.so.1:glLineWidth
libGL.so.1:glMatrixMode
libGL.so.1:glMultMatrixd
libGL.so.1:glPixelStorei
libGL.so.1:glPointSize
libGL.so.1:glPopClientAttrib
libGL.so.1:glPopMatrix
libGL.so.1:glPushClientAttrib
libGL.so.1:glPushMatrix
libGL.so.1:glRasterPos2d
libGL.so.1:glRotated
libGL.so.1:glTranslated
libGL.so.1:glTranslatef
libGL.so.1:glVertex2d
libOpenColorIO.so.1:_ZN11OpenColorIO2v110GetVersionEv
libOpenColorIO.so.1:_ZN11OpenColorIO2v112CDLTransform14CreateFromFileEPKcS3_
libOpenColorIO.so.1:_ZN11OpenColorIO2v112CDLTransform6CreateEv
libOpenColorIO.so.1:_ZN11OpenColorIO2v112CDLTransform6setSOPEPKf
libOpenColorIO.so.1:_ZN11OpenColorIO2v112CDLTransform6setSatEf
libOpenColorIO.so.1:_ZN11OpenColorIO2v112ROLE_DEFAULTE
libOpenColorIO.so.1:_ZN11OpenColorIO2v113FileTransform13getNumFormatsEv
libOpenColorIO.so.1:_ZN11OpenColorIO2v113FileTransform16setInterpolationENS0_13InterpolationE
libOpenColorIO.so.1:_ZN11OpenColorIO2v113FileTransform20getFormatNameByIndexEi
libOpenColorIO.so.1:_ZN11OpenColorIO2v113FileTransform25getFormatExtensionByIndexEi
libOpenColorIO.so.1:_ZN11OpenColorIO2v113FileTransform6CreateEv
libOpenColorIO.so.1:_ZN11OpenColorIO2v113FileTransform6setSrcEPKc
libOpenColorIO.so.1:_ZN11OpenColorIO2v113FileTransform8setCCCIdEPKc
libOpenColorIO.so.1:_ZN11OpenColorIO2v113GpuShaderDesc11setLanguageENS0_11GpuLanguageE
libOpenColorIO.so.1:_ZN11OpenColorIO2v113GpuShaderDesc15setFunctionNameEPKc
libOpenColorIO.so.1:_ZN11OpenColorIO2v113GpuShaderDesc15setLut3DEdgeLenEi
libOpenColorIO.so.1:_ZN11OpenColorIO2v113GpuShaderDescC1Ev
libOpenColorIO.so.1:_ZN11OpenColorIO2v113GpuShaderDescD1Ev
libOpenColorIO.so.1:_ZN11OpenColorIO2v113LookTransform6CreateEv
libOpenColorIO.so.1:_ZN11OpenColorIO2v113LookTransform6setDstEPKc
libOpenColorIO.so.1:_ZN11OpenColorIO2v113LookTransform6setSrcEPKc
libOpenColorIO.so.1:_ZN11OpenColorIO2v113LookTransform8setLooksEPKc
libOpenColorIO.so.1:_ZN11OpenColorIO2v114ClearAllCachesEv
libOpenColorIO.so.1:_ZN11OpenColorIO2v114ROLE_REFERENCEE
libOpenColorIO.so.1:_ZN11OpenColorIO2v115MatrixTransform4ViewEPfS2_PiPKf
libOpenColorIO.so.1:_ZN11OpenColorIO2v115MatrixTransform5ScaleEPfS2_PKf
libOpenColorIO.so.1:_ZN11OpenColorIO2v115MatrixTransform6CreateEv
libOpenColorIO.so.1:_ZN11OpenColorIO2v115MatrixTransform8setValueEPKfS3_
libOpenColorIO.so.1:_ZN11OpenColorIO2v115PackedImageDescC1EPfllllll
libOpenColorIO.so.1:_ZN11OpenColorIO2v115PackedImageDescD1Ev
libOpenColorIO.so.1:_ZN11OpenColorIO2v116DisplayTransform10setDisplayEPKc
libOpenColorIO.so.1:_ZN11OpenColorIO2v116DisplayTransform11setLinearCCERKNSt3tr110shared_ptrIKNS0_9TransformEEE
libOpenColorIO.so.1:_ZN11OpenColorIO2v116DisplayTransform12setDisplayCCERKNSt3tr110shared_ptrIKNS0_9TransformEEE
libOpenColorIO.so.1:_ZN11OpenColorIO2v116DisplayTransform14setChannelViewERKNSt3tr110shared_ptrIKNS0_9TransformEEE
libOpenColorIO.so.1:_ZN11OpenColorIO2v116DisplayTransform22setInputColorSpaceNameEPKc
libOpenColorIO.so.1:_ZN11OpenColorIO2v116DisplayTransform6CreateEv
libOpenColorIO.so.1:_ZN11OpenColorIO2v116DisplayTransform7setViewEPKc
libOpenColorIO.so.1:_ZN11OpenColorIO2v116GetCurrentConfigEv
libOpenColorIO.so.1:_ZN11OpenColorIO2v116ROLE_MATTE_PAINTE
libOpenColorIO.so.1:_ZN11OpenColorIO2v117ExponentTransform6CreateEv
libOpenColorIO.so.1:_ZN11OpenColorIO2v117ExponentTransform8setValueEPKf
libOpenColorIO.so.1:_ZN11OpenColorIO2v117ROLE_COLOR_TIMINGE
libOpenColorIO.so.1:_ZN11OpenColorIO2v117ROLE_SCENE_LINEARE
libOpenColorIO.so.1:_ZN11OpenColorIO2v118ROLE_COLOR_PICKINGE
libOpenColorIO.so.1:_ZN11OpenColorIO2v118ROLE_TEXTURE_PAINTE
libOpenColorIO.so.1:_ZN11OpenColorIO2v120ROLE_COMPOSITING_LOGE
libOpenColorIO.so.1:_ZN11OpenColorIO2v16Config14CreateFromFileEPKc
libOpenColorIO.so.1:_ZN11OpenColorIO2v17Context12setStringVarEPKcS3_
libOpenColorIO.so.1:_ZN11OpenColorIO2v19ROLE_DATAE
libOpenColorIO.so.1:_ZNK11OpenColorIO2v110ColorSpace14getDescriptionEv
libOpenColorIO.so.1:_ZNK11OpenColorIO2v110ColorSpace7getNameEv
libOpenColorIO.so.1:_ZNK11OpenColorIO2v110ColorSpace9getFamilyEv
libOpenColorIO.so.1:_ZNK11OpenColorIO2v112CDLTransform6getSOPEPf
libOpenColorIO.so.1:_ZNK11OpenColorIO2v112CDLTransform6getSatEv
libOpenColorIO.so.1:_ZNK11OpenColorIO2v112CDLTransform6getXMLEv
libOpenColorIO.so.1:_ZNK11OpenColorIO2v14Look15getProcessSpaceEv
libOpenColorIO.so.1:_ZNK11OpenColorIO2v16Config10getDisplayEi
libOpenColorIO.so.1:_ZNK11OpenColorIO2v16Config11getNumLooksEv
libOpenColorIO.so.1:_ZNK11OpenColorIO2v16Config11getNumViewsEPKc
libOpenColorIO.so.1:_ZNK11OpenColorIO2v16Config12getProcessorEPKcS3_
libOpenColorIO.so.1:_ZNK11OpenColorIO2v16Config12getProcessorERKNSt3tr110shared_ptrIKNS0_7ContextEEEPKcSA_
libOpenColorIO.so.1:_ZNK11OpenColorIO2v16Config12getProcessorERKNSt3tr110shared_ptrIKNS0_7ContextEEERKNS3_IKNS0_9TransformEEENS0_18TransformDirectionE
libOpenColorIO.so.1:_ZNK11OpenColorIO2v16Config12getProcessorERKNSt3tr110shared_ptrIKNS0_9TransformEEE
libOpenColorIO.so.1:_ZNK11OpenColorIO2v16Config12getProcessorERKNSt3tr110shared_ptrIKNS0_9TransformEEENS0_18TransformDirectionE
libOpenColorIO.so.1:_ZNK11OpenColorIO2v16Config13getColorSpaceEPKc
libOpenColorIO.so.1:_ZNK11OpenColorIO2v16Config14getDefaultViewEPKc
libOpenColorIO.so.1:_ZNK11OpenColorIO2v16Config14getDescriptionEv
libOpenColorIO.so.1:_ZNK11OpenColorIO2v16Config14getNumDisplaysEv
libOpenColorIO.so.1:_ZNK11OpenColorIO2v16Config17getCurrentContextEv
libOpenColorIO.so.1:_ZNK11OpenColorIO2v16Config17getDefaultDisplayEv
libOpenColorIO.so.1:_ZNK11OpenColorIO2v16Config17getNumColorSpacesEv
libOpenColorIO.so.1:_ZNK11OpenColorIO2v16Config18getLookNameByIndexEi
libOpenColorIO.so.1:_ZNK11OpenColorIO2v16Config19getDefaultLumaCoefsEPf
libOpenColorIO.so.1:_ZNK11OpenColorIO2v16Config21getIndexForColorSpaceEPKc
libOpenColorIO.so.1:_ZNK11OpenColorIO2v16Config24getColorSpaceNameByIndexEi
libOpenColorIO.so.1:_ZNK11OpenColorIO2v16Config25parseColorSpaceFromStringEPKc
libOpenColorIO.so.1:_ZNK11OpenColorIO2v16Config7getLookEPKc
libOpenColorIO.so.1:_ZNK11OpenColorIO2v16Config7getViewEPKci
libOpenColorIO.so.1:_ZNK11OpenColorIO2v17Context18createEditableCopyEv
libOpenColorIO.so.1:_ZNK11OpenColorIO2v19Processor11getGpuLut3DEPfRKNS0_13GpuShaderDescE
libOpenColorIO.so.1:_ZNK11OpenColorIO2v19Processor16getGpuShaderTextERKNS0_13GpuShaderDescE
libOpenColorIO.so.1:_ZNK11OpenColorIO2v19Processor18getGpuLut3DCacheIDERKNS0_13GpuShaderDescE
libOpenColorIO.so.1:_ZNK11OpenColorIO2v19Processor23getGpuShaderTextCacheIDERKNS0_13GpuShaderDescE
libOpenColorIO.so.1:_ZNK11OpenColorIO2v19Processor5applyERNS0_9ImageDescE
libOpenColorIO.so.1:_ZNK11OpenColorIO2v19Processor6isNoOpEv
libSeExpr.so:_ZN10SeExprFunc6lookupERKNSt7__cxx1112basic_stringIcSt11char_traitsIcESaIcEEE
libSeExpr.so:_ZN12SeExpressionC2ERKNSt7__cxx1112basic_stringIcSt11char_traitsIcESaIcEEEbRK9SeContext
libSeExpr.so:_ZN12SeExpressionD2Ev
libSeExpr.so:_ZN6SeExpr9voronoiFnERNS_16VoronoiPointDataEiPK7SeVec3d
libSeExpr.so:_ZN9SeContext6globalEv
libSeExpr.so:_ZNK12SeExpression7isValidEv
libSeExpr.so:_ZNK12SeExpression8evaluateEv
libavcodec.so.58:av_codec_is_encoder
libavcodec.so.58:av_codec_next
libavcodec.so.58:av_init_packet
libavcodec.so.58:av_lockmgr_register
libavcodec.so.58:av_packet_rescale_ts
libavcodec.so.58:av_packet_unref
libavcodec.so.58:avcodec_alloc_context3
libavcodec.so.58:avcodec_close
libavcodec.so.58:avcodec_descriptor_get
libavcodec.so.58:avcodec_encode_video2
libavcodec.so.58:avcodec_find_best_pix_fmt_of_list
libavcodec.so.58:avcodec_find_decoder
libavcodec.so.58:avcodec_find_encoder
libavcodec.so.58:avcodec_find_encoder_by_name
libavcodec.so.58:avcodec_flush_buffers
libavcodec.so.58:avcodec_free_context
libavcodec.so.58:avcodec_get_context_defaults3
libavcodec.so.58:avcodec_open2
libavcodec.so.58:avcodec_parameters_from_context
libavcodec.so.58:avcodec_parameters_to_context
libavcodec.so.58:avcodec_receive_frame
libavcodec.so.58:avcodec_register_all
libavcodec.so.58:avcodec_send_packet
libavcodec.so.58:avcodec_version
libavformat.so.58:av_guess_format
libavformat.so.58:av_iformat_next
libavformat.so.58:av_oformat_next
libavformat.so.58:av_read_frame
libavformat.so.58:av_register_all
libavformat.so.58:av_seek_frame
libavformat.so.58:av_write_frame
libavformat.so.58:av_write_trailer
libavformat.so.58:avformat_alloc_output_context2
libavformat.so.58:avformat_close_input
libavformat.so.58:avformat_find_stream_info
libavformat.so.58:avformat_free_context
libavformat.so.58:avformat_init_output
libavformat.so.58:avformat_new_stream
libavformat.so.58:avformat_open_input
libavformat.so.58:avformat_query_codec
libavformat.so.58:avformat_version
libavformat.so.58:avformat_write_header
libavformat.so.58:avio_close
libavformat.so.58:avio_open
libavutil.so.56:av_add_q
libavutil.so.56:av_d2q
libavutil.so.56:av_dict_get
libavutil.so.56:av_dict_set
libavutil.so.56:av_frame_alloc
libavutil.so.56:av_frame_free
libavutil.so.56:av_frame_set_pkt_duration
libavutil.so.56:av_free
libavutil.so.56:av_freep
libavutil.so.56:av_get_bits_per_pixel
libavutil.so.56:av_image_alloc
libavutil.so.56:av_image_fill_arrays
libavutil.so.56:av_image_get_buffer_size
libavutil.so.56:av_log
libavutil.so.56:av_log_set_level
libavutil.so.56:av_opt_set
libavutil.so.56:av_opt_set_double
libavutil.so.56:av_opt_set_int
libavutil.so.56:av_pix_fmt_desc_get
libavutil.so.56:av_strerror
libavutil.so.56:avutil_version
libc.so.6:__cxa_atexit
libc.so.6:__isoc99_fscanf
libc.so.6:__isoc99_sscanf
libc.so.6:__xstat
libc.so.6:_exit
libc.so.6:_setjmp
libc.so.6:chmod
libc.so.6:closedir
libc.so.6:dup2
libc.so.6:execvp
libc.so.6:fclose
libc.so.6:fcntl
libc.so.6:fflush
libc.so.6:fgetc
libc.so.6:fopen
libc.so.6:fork
libc.so.6:fprintf
libc.so.6:fputc
libc.so.6:fputs
libc.so.6:fread
libc.so.6:free
libc.so.6:fwrite
libc.so.6:getenv
libc.so.6:isalnum
libc.so.6:longjmp
libc.so.6:malloc
libc.so.6:memcmp
libc.so.6:memcpy
libc.so.6:memmove
libc.so.6:memset
libc.so.6:mkstemp
libc.so.6:opendir
libc.so.6:pipe
libc.so.6:pthread_self
libc.so.6:readdir
libc.so.6:sched_yield
libc.so.6:setpgid
libc.so.6:snprintf
libc.so.6:strcat
libc.so.6:strcmp
libc.so.6:strcpy
libc.so.6:strlen
libc.so.6:strncasecmp
libc.so.6:strncmp
libc.so.6:strncpy
libc.so.6:strrchr
libc.so.6:strstr
libc.so.6:strtol
libc.so.6:sysconf
libc.so.6:tolower
libc.so.6:toupper
libc.so.6:unlink
libc.so.6:vfprintf
libgcc_s.so.1:_Unwind_Resume
libm.so.6:acosf
libm.so.6:atan2
libm.so.6:ceil
libm.so.6:cos
libm.so.6:floor
libm.so.6:log
libm.so.6:log10
libm.so.6:pow
libm.so.6:powf
libm.so.6:sin
libm.so.6:sincos
libm.so.6:sqrt
libm.so.6:sqrtf
libpng16.so.16:png_create_info_struct
libpng16.so.16:png_create_read_struct
libpng16.so.16:png_create_write_struct
libpng16.so.16:png_destroy_read_struct
libpng16.so.16:png_destroy_write_struct
libpng16.so.16:png_get_IHDR
libpng16.so.16:png_get_PLTE
libpng16.so.16:png_get_bKGD
libpng16.so.16:png_get_cHRM
libpng16.so.16:png_get_channels
libpng16.so.16:png_get_compression_type
libpng16.so.16:png_get_copyright
libpng16.so.16:png_get_filter_type
libpng16.so.16:png_get_gAMA
libpng16.so.16:png_get_hIST
libpng16.so.16:png_get_header_ver
libpng16.so.16:png_get_iCCP
libpng16.so.16:png_get_interlace_type
libpng16.so.16:png_get_oFFs
libpng16.so.16:png_get_pCAL
libpng16.so.16:png_get_pHYs
libpng16.so.16:png_get_pixel_aspect_ratio
libpng16.so.16:png_get_sBIT
libpng16.so.16:png_get_sCAL
libpng16.so.16:png_get_sRGB
libpng16.so.16:png_get_tRNS
libpng16.so.16:png_get_text
libpng16.so.16:png_get_valid
libpng16.so.16:png_get_x_offset_pixels
libpng16.so.16:png_get_y_offset_pixels
libpng16.so.16:png_init_io
libpng16.so.16:png_read_end
libpng16.so.16:png_read_image
libpng16.so.16:png_read_info
libpng16.so.16:png_read_update_info
libpng16.so.16:png_set_IHDR
libpng16.so.16:png_set_compression_level
libpng16.so.16:png_set_compression_strategy
libpng16.so.16:png_set_expand
libpng16.so.16:png_set_gAMA
libpng16.so.16:png_set_gAMA_fixed
libpng16.so.16:png_set_gray_to_rgb
libpng16.so.16:png_set_interlace_handling
libpng16.so.16:png_set_longjmp_fn
libpng16.so.16:png_set_oFFs
libpng16.so.16:png_set_pHYs
libpng16.so.16:png_set_packing
libpng16.so.16:png_set_sRGB_gAMA_and_cHRM
libpng16.so.16:png_set_sig_bytes
libpng16.so.16:png_set_swap
libpng16.so.16:png_sig_cmp
libpng16.so.16:png_write_end
libpng16.so.16:png_write_info
libpng16.so.16:png_write_row
libpthread.so.0:__errno_location
libpthread.so.0:close
libpthread.so.0:pthread_cond_broadcast
libpthread.so.0:pthread_cond_destroy
libpthread.so.0:pthread_cond_init
libpthread.so.0:pthread_cond_wait
libpthread.so.0:pthread_create
libpthread.so.0:pthread_detach
libpthread.so.0:pthread_join
libpthread.so.0:pthread_mutex_destroy
libpthread.so.0:pthread_mutex_init
libpthread.so.0:pthread_mutex_lock
libpthread.so.0:pthread_mutex_trylock
libpthread.so.0:pthread_mutex_unlock
libpthread.so.0:pthread_mutexattr_init
libpthread.so.0:pthread_mutexattr_settype
libpthread.so.0:read
libpthread.so.0:waitpid
libpthread.so.0:write
libstdc++.so.6:_ZNKSt12__basic_fileIcE7is_openEv
libstdc++.so.6:_ZNKSt5ctypeIcE13_M_widen_initEv
libstdc++.so.6:_ZNKSt7__cxx1112basic_stringIcSt11char_traitsIcESaIcEE12find_last_ofEPKcmm
libstdc++.so.6:_ZNKSt7__cxx1112basic_stringIcSt11char_traitsIcESaIcEE13find_first_ofEPKcmm
libstdc++.so.6:_ZNKSt7__cxx1112basic_stringIcSt11char_traitsIcESaIcEE16find_last_not_ofEPKcmm
libstdc++.so.6:_ZNKSt7__cxx1112basic_stringIcSt11char_traitsIcESaIcEE17find_first_not_ofEPKcmm
libstdc++.so.6:_ZNKSt7__cxx1112basic_stringIcSt11char_traitsIcESaIcEE4copyEPcmm
libstdc++.so.6:_ZNKSt7__cxx1112basic_stringIcSt11char_traitsIcESaIcEE4findEPKcmm
libstdc++.so.6:_ZNKSt7__cxx1112basic_stringIcSt11char_traitsIcESaIcEE4findEcm
libstdc++.so.6:_ZNKSt7__cxx1112basic_stringIcSt11char_traitsIcESaIcEE5rfindEcm
libstdc++.so.6:_ZNKSt7__cxx1112basic_stringIcSt11char_traitsIcESaIcEE7compareEPKc
libstdc++.so.6:_ZNKSt7__cxx1112basic_stringIcSt11char_traitsIcESaIcEE7compareEmmPKc
libstdc++.so.6:_ZNKSt7__cxx1112basic_stringIcSt11char_traitsIcESaIcEE7compareEmmRKS4_
libstdc++.so.6:_ZNKSt7__cxx1115basic_stringbufIcSt11char_traitsIcESaIcEE3strEv
libstdc++.so.6:_ZNSi5tellgEv
libstdc++.so.6:_ZNSo3putEc
libstdc++.so.6:_ZNSo5flushEv
libstdc++.so.6:_ZNSo5writeEPKcl
libstdc++.so.6:_ZNSo9_M_insertIPKvEERSoT_
libstdc++.so.6:_ZNSo9_M_insertIdEERSoT_
libstdc++.so.6:_ZNSo9_M_insertImEERSoT_
libstdc++.so.6:_ZNSolsEi
libstdc++.so.6:_ZNSt11logic_errorC1EPKc
libstdc++.so.6:_ZNSt11logic_errorC1ERKNSt7__cxx1112basic_stringIcSt11char_traitsIcESaIcEEE
libstdc++.so.6:_ZNSt11logic_errorC2ERKS_
libstdc++.so.6:_ZNSt11logic_errorD1Ev
libstdc++.so.6:_ZNSt12__basic_fileIcED1Ev
libstdc++.so.6:_ZNSt12out_of_rangeC1EPKc
libstdc++.so.6:_ZNSt12out_of_rangeD1Ev
libstdc++.so.6:_ZNSt13basic_filebufIcSt11char_traitsIcEE4openEPKcSt13_Ios_Openmode
libstdc++.so.6:_ZNSt13basic_filebufIcSt11char_traitsIcEE5closeEv
libstdc++.so.6:_ZNSt13basic_filebufIcSt11char_traitsIcEEC1Ev
libstdc++.so.6:_ZNSt13basic_filebufIcSt11char_traitsIcEED1Ev
libstdc++.so.6:_ZNSt13runtime_errorC1EPKc
libstdc++.so.6:_ZNSt13runtime_errorC1ERKNSt7__cxx1112basic_stringIcSt11char_traitsIcESaIcEEE
libstdc++.so.6:_ZNSt13runtime_errorD1Ev
libstdc++.so.6:_ZNSt14basic_ifstreamIcSt11char_traitsIcEED1Ev
libstdc++.so.6:_ZNSt15basic_streambufIcSt11char_traitsIcEE5imbueERKSt6locale
libstdc++.so.6:_ZNSt15basic_streambufIcSt11char_traitsIcEE5uflowEv
libstdc++.so.6:_ZNSt15basic_streambufIcSt11char_traitsIcEE6setbufEPcl
libstdc++.so.6:_ZNSt15basic_streambufIcSt11char_traitsIcEE6xsgetnEPcl
libstdc++.so.6:_ZNSt15basic_streambufIcSt11char_traitsIcEE7seekoffElSt12_Ios_SeekdirSt13_Ios_Openmode
libstdc++.so.6:_ZNSt15basic_streambufIcSt11char_traitsIcEE7seekposESt4fposI11__mbstate_tESt13_Ios_Openmode
libstdc++.so.6:_ZNSt16invalid_argumentC1EPKc
libstdc++.so.6:_ZNSt16invalid_argumentC1ERKNSt7__cxx1112basic_stringIcSt11char_traitsIcESaIcEEE
libstdc++.so.6:_ZNSt16invalid_argumentD1Ev
libstdc++.so.6:_ZNSt6localeC1Ev
libstdc++.so.6:_ZNSt6localeD1Ev
libstdc++.so.6:_ZNSt7__cxx1112basic_stringIcSt11char_traitsIcESaIcEE10_M_replaceEmmPKcm
libstdc++.so.6:_ZNSt7__cxx1112basic_stringIcSt11char_traitsIcESaIcEE14_M_replace_auxEmmmc
libstdc++.so.6:_ZNSt7__cxx1112basic_stringIcSt11char_traitsIcESaIcEE4swapERS4_
libstdc++.so.6:_ZNSt7__cxx1112basic_stringIcSt11char_traitsIcESaIcEE6appendEPKc
libstdc++.so.6:_ZNSt7__cxx1112basic_stringIcSt11char_traitsIcESaIcEE6assignEPKc
libstdc++.so.6:_ZNSt7__cxx1112basic_stringIcSt11char_traitsIcESaIcEE6resizeEmc
libstdc++.so.6:_ZNSt7__cxx1112basic_stringIcSt11char_traitsIcESaIcEE7reserveEm
libstdc++.so.6:_ZNSt7__cxx1112basic_stringIcSt11char_traitsIcESaIcEE8_M_eraseEmm
libstdc++.so.6:_ZNSt7__cxx1112basic_stringIcSt11char_traitsIcESaIcEE9_M_appendEPKcm
libstdc++.so.6:_ZNSt7__cxx1112basic_stringIcSt11char_traitsIcESaIcEE9_M_assignERKS4_
libstdc++.so.6:_ZNSt7__cxx1112basic_stringIcSt11char_traitsIcESaIcEE9_M_createERmm
libstdc++.so.6:_ZNSt7__cxx1112basic_stringIcSt11char_traitsIcESaIcEE9_M_mutateEmmPKcm
libstdc++.so.6:_ZNSt7__cxx1112basic_stringIcSt11char_traitsIcESaIcEED1Ev
libstdc++.so.6:_ZNSt7__cxx1112basic_stringIcSt11char_traitsIcESaIcEEaSEOS4_
libstdc++.so.6:_ZNSt7__cxx1115basic_stringbufIcSt11char_traitsIcESaIcEE7_M_syncEPcmm
libstdc++.so.6:_ZNSt7__cxx1118basic_stringstreamIcSt11char_traitsIcESaIcEEC1Ev
libstdc++.so.6:_ZNSt7__cxx1118basic_stringstreamIcSt11char_traitsIcESaIcEED1Ev
libstdc++.so.6:_ZNSt7__cxx1119basic_istringstreamIcSt11char_traitsIcESaIcEED1Ev
libstdc++.so.6:_ZNSt7__cxx1119basic_ostringstreamIcSt11char_traitsIcESaIcEEC1Ev
libstdc++.so.6:_ZNSt7__cxx1119basic_ostringstreamIcSt11char_traitsIcESaIcEED1Ev
libstdc++.so.6:_ZNSt8__detail15_List_node_base11_M_transferEPS0_S1_
libstdc++.so.6:_ZNSt8__detail15_List_node_base7_M_hookEPS0_
libstdc++.so.6:_ZNSt8__detail15_List_node_base9_M_unhookEv
libstdc++.so.6:_ZNSt8ios_base4InitC1Ev
libstdc++.so.6:_ZNSt8ios_base4InitD1Ev
libstdc++.so.6:_ZNSt8ios_baseC2Ev
libstdc++.so.6:_ZNSt8ios_baseD2Ev
libstdc++.so.6:_ZNSt9bad_allocD1Ev
libstdc++.so.6:_ZNSt9basic_iosIcSt11char_traitsIcEE4initEPSt15basic_streambufIcS1_E
libstdc++.so.6:_ZNSt9basic_iosIcSt11char_traitsIcEE5clearESt12_Ios_Iostate
libstdc++.so.6:_ZNSt9basic_iosIcSt11char_traitsIcEE5rdbufEPSt15basic_streambufIcS1_E
libstdc++.so.6:_ZNSt9exceptionD1Ev
libstdc++.so.6:_ZNSt9exceptionD2Ev
libstdc++.so.6:_ZSt16__ostream_insertIcSt11char_traitsIcEERSt13basic_ostreamIT_T0_ES6_PKS3_l
libstdc++.so.6:_ZSt16__throw_bad_castv
libstdc++.so.6:_ZSt17__throw_bad_allocv
libstdc++.so.6:_ZSt18_Rb_tree_decrementPKSt18_Rb_tree_node_base
libstdc++.so.6:_ZSt18_Rb_tree_decrementPSt18_Rb_tree_node_base
libstdc++.so.6:_ZSt18_Rb_tree_incrementPKSt18_Rb_tree_node_base
libstdc++.so.6:_ZSt18_Rb_tree_incrementPSt18_Rb_tree_node_base
libstdc++.so.6:_ZSt19__throw_logic_errorPKc
libstdc++.so.6:_ZSt20__throw_length_errorPKc
libstdc++.so.6:_ZSt24__throw_out_of_range_fmtPKcz
libstdc++.so.6:_ZSt28_Rb_tree_rebalance_for_erasePSt18_Rb_tree_node_baseRS_
libstdc++.so.6:_ZSt29_Rb_tree_insert_and_rebalancebPSt18_Rb_tree_node_baseS0_RS_
libstdc++.so.6:_ZSt4endlIcSt11char_traitsIcEERSt13basic_ostreamIT_T0_ES6_
libstdc++.so.6:_ZSt7getlineIcSt11char_traitsIcESaIcEERSt13basic_istreamIT_T0_ES7_RNSt7__cxx1112basic_stringIS4_S5_T1_EES4_
libstdc++.so.6:_ZSt9terminatev
libstdc++.so.6:_ZSt9use_facetISt5ctypeIcEERKT_RKSt6locale
libstdc++.so.6:_ZStlsISt11char_traitsIcEERSt13basic_ostreamIcT_ES5_PKc
libstdc++.so.6:_ZTISi
libstdc++.so.6:_ZTISt11logic_error
libstdc++.so.6:_ZTISt12out_of_range
libstdc++.so.6:_ZTISt13runtime_error
libstdc++.so.6:_ZTISt15basic_streambufIcSt11char_traitsIcEE
libstdc++.so.6:_ZTISt16invalid_argument
libstdc++.so.6:_ZTISt9bad_alloc
libstdc++.so.6:_ZTISt9basic_iosIcSt11char_traitsIcEE
libstdc++.so.6:_ZTISt9exception
libstdc++.so.6:_ZTTNSt7__cxx1118basic_stringstreamIcSt11char_traitsIcESaIcEEE
libstdc++.so.6:_ZTTNSt7__cxx1119basic_istringstreamIcSt11char_traitsIcESaIcEEE
libstdc++.so.6:_ZTTNSt7__cxx1119basic_ostringstreamIcSt11char_traitsIcESaIcEEE
libstdc++.so.6:_ZTTSt14basic_ifstreamIcSt11char_traitsIcEE
libstdc++.so.6:_ZTVN10__cxxabiv117__class_type_infoE
libstdc++.so.6:_ZTVN10__cxxabiv120__si_class_type_infoE
libstdc++.so.6:_ZTVN10__cxxabiv121__vmi_class_type_infoE
libstdc++.so.6:_ZTVNSt7__cxx1115basic_stringbufIcSt11char_traitsIcESaIcEEE
libstdc++.so.6:_ZTVNSt7__cxx1118basic_stringstreamIcSt11char_traitsIcESaIcEEE
libstdc++.so.6:_ZTVNSt7__cxx1119basic_istringstreamIcSt11char_traitsIcESaIcEEE
libstdc++.so.6:_ZTVNSt7__cxx1119basic_ostringstreamIcSt11char_traitsIcESaIcEEE
libstdc++.so.6:_ZTVSt13basic_filebufIcSt11char_traitsIcEE
libstdc++.so.6:_ZTVSt14basic_ifstreamIcSt11char_traitsIcEE
libstdc++.so.6:_ZTVSt15basic_streambufIcSt11char_traitsIcEE
libstdc++.so.6:_ZTVSt16invalid_argument
libstdc++.so.6:_ZTVSt9bad_alloc
libstdc++.so.6:_ZTVSt9basic_iosIcSt11char_traitsIcEE
libstdc++.so.6:_ZTVSt9exception
libstdc++.so.6:_ZdaPv
libstdc++.so.6:_ZdlPv
libstdc++.so.6:_ZdlPvm
libstdc++.so.6:_Znam
libstdc++.so.6:_Znwm
libstdc++.so.6:__cxa_allocate_exception
libstdc++.so.6:__cxa_begin_catch
libstdc++.so.6:__cxa_end_catch
libstdc++.so.6:__cxa_free_exception
libstdc++.so.6:__cxa_get_exception_ptr
libstdc++.so.6:__cxa_guard_abort
libstdc++.so.6:__cxa_guard_acquire
libstdc++.so.6:__cxa_guard_release
libstdc++.so.6:__cxa_pure_virtual
libstdc++.so.6:__cxa_rethrow
libstdc++.so.6:__cxa_throw
libstdc++.so.6:__cxa_throw_bad_array_new_length
libstdc++.so.6:__gxx_personality_v0
libswscale.so.5:sws_freeContext
libswscale.so.5:sws_getCoefficients
libswscale.so.5:sws_getContext
libswscale.so.5:sws_scale
libswscale.so.5:sws_setColorspaceDetails
libswscale.so.5:swscale_version
libz.so.1:adler32
libz.so.1:crc32
libz.so.1:zlibVersion
